; Function Attrs: null_pointer_is_valid sspstrong uwtable
define internal noundef zeroext i1 @uint32_from_uinteger64(ptr noundef writeonly captures(none) %0, ptr noundef %1, i64 noundef %2, ptr noundef writeonly captures(address_is_null) %3) #0 {
  %5 = icmp ult i64 %2, 4294967296
  br i1 %5, label %9, label %6

6:                                                ; preds = %4
  %.not.i = icmp eq ptr %3, null
  br i1 %.not.i, label %_uint64_from_uinteger64.exit, label %7

7:                                                ; preds = %6
  %8 = tail call noalias ptr (ptr, ptr, ...) @wmem_strdup_printf(ptr noundef null, ptr noundef nonnull @.str.40, ptr noundef %1, i64 noundef 4294967295)
  store ptr %8, ptr %3, align 8
  br label %_uint64_from_uinteger64.exit

9:                                                ; preds = %4
  %10 = getelementptr inbounds nuw i8, ptr %0, i64 8
  store i64 %2, ptr %10, align 8
  br label %_uint64_from_uinteger64.exit

_uint64_from_uinteger64.exit:                     ; preds = %6, %7, %9
  ret i1 %5
}